target datalayout = "e-m:e-p270:32:32-p271:32:32-p272:64:64-i64:64-i128:128-f80:128-n8:16:32:64-S128"
target triple = "x86_64-pc-linux-gnu"

%struct.ShellState = type { ptr, i8, i8, i8, i8, i8, i8, i8, i8, i8, i8, i8, i8, i8, %struct.ColModeOpts, i32, i32, i32, i32, i32, i32, i32, ptr, ptr, ptr, i32, i32, i32, i32, i32, i32, i32, i32, i32, i32, i32, i32, i32, i64, ptr, ptr, [30 x i8], [20 x i8], [20 x i8], [20 x i8], [20 x i8], ptr, ptr, i32, [20 x i8], [4096 x i8], ptr, ptr, [5 x %struct.AuxDb], ptr, ptr, i32, i32, ptr, %struct.EQPGraph, %struct.ExpertInfo }
%struct.ColModeOpts = type { i32, i8, i8 }
%struct.AuxDb = type { ptr, ptr, ptr }
%struct.EQPGraph = type { ptr, ptr, [100 x i8] }
%struct.ExpertInfo = type { ptr, i32 }

@stderr = external global ptr, align 8
@stdout = external global ptr, align 8
@.str.1894 = private unnamed_addr constant [22 x i8] c"</PRE></BODY></HTML>\0A\00", align 1
@.str.1895 = private unnamed_addr constant [9 x i8] c"xdg-open\00", align 1
@.str.1896 = private unnamed_addr constant [6 x i8] c"%s %s\00", align 1
@.str.1897 = private unnamed_addr constant [14 x i8] c"Failed: [%s]\0A\00", align 1

; Function Attrs: nounwind uwtable
define internal void @setCrlfMode(ptr noundef %0) #0 {
  %2 = alloca ptr, align 8
  store ptr %0, ptr %2, align 8, !tbaa !373
  ret void
}

; Function Attrs: nounwind uwtable
define internal void @outputModePop(ptr noundef %0) #0 {
  %2 = alloca ptr, align 8
  store ptr %0, ptr %2, align 8, !tbaa !373
  %3 = load ptr, ptr %2, align 8, !tbaa !373
  %4 = getelementptr inbounds nuw %struct.ShellState, ptr %3, i32 0, i32 27
  %5 = load i32, ptr %4, align 8, !tbaa !1192
  %6 = load ptr, ptr %2, align 8, !tbaa !373
  %7 = getelementptr inbounds nuw %struct.ShellState, ptr %6, i32 0, i32 26
  store i32 %5, ptr %7, align 4, !tbaa !355
  %8 = load ptr, ptr %2, align 8, !tbaa !373
  %9 = getelementptr inbounds nuw %struct.ShellState, ptr %8, i32 0, i32 37
  %10 = load i32, ptr %9, align 8, !tbaa !1193
  %11 = load ptr, ptr %2, align 8, !tbaa !373
  %12 = getelementptr inbounds nuw %struct.ShellState, ptr %11, i32 0, i32 36
  store i32 %10, ptr %12, align 4, !tbaa !341
  %13 = load ptr, ptr %2, align 8, !tbaa !373
  %14 = getelementptr inbounds nuw %struct.ShellState, ptr %13, i32 0, i32 42
  %15 = getelementptr inbounds [20 x i8], ptr %14, i64 0, i64 0
  %16 = load ptr, ptr %2, align 8, !tbaa !373
  %17 = getelementptr inbounds nuw %struct.ShellState, ptr %16, i32 0, i32 44
  %18 = getelementptr inbounds [20 x i8], ptr %17, i64 0, i64 0
  call void @llvm.memcpy.p0.p0.i64(ptr align 2 %15, ptr align 2 %18, i64 20, i1 false)
  %19 = load ptr, ptr %2, align 8, !tbaa !373
  %20 = getelementptr inbounds nuw %struct.ShellState, ptr %19, i32 0, i32 43
  %21 = getelementptr inbounds [20 x i8], ptr %20, i64 0, i64 0
  %22 = load ptr, ptr %2, align 8, !tbaa !373
  %23 = getelementptr inbounds nuw %struct.ShellState, ptr %22, i32 0, i32 45
  %24 = getelementptr inbounds [20 x i8], ptr %23, i64 0, i64 0
  call void @llvm.memcpy.p0.p0.i64(ptr align 2 %21, ptr align 2 %24, i64 20, i1 false)
  ret void
}

; Function Attrs: nounwind uwtable
define internal void @output_file_close(ptr noundef %0) #0 {
  %2 = alloca ptr, align 8
  store ptr %0, ptr %2, align 8, !tbaa !12
  %3 = load ptr, ptr %2, align 8, !tbaa !12
  %4 = icmp ne ptr %3, null
  br i1 %4, label %5, label %16

5:                                                ; preds = %1
  %6 = load ptr, ptr %2, align 8, !tbaa !12
  %7 = load ptr, ptr @stdout, align 8, !tbaa !12
  %8 = icmp ne ptr %6, %7
  br i1 %8, label %9, label %16

9:                                                ; preds = %5
  %10 = load ptr, ptr %2, align 8, !tbaa !12
  %11 = load ptr, ptr @stderr, align 8, !tbaa !12
  %12 = icmp ne ptr %10, %11
  br i1 %12, label %13, label %16

13:                                               ; preds = %9
  %14 = load ptr, ptr %2, align 8, !tbaa !12
  %15 = call i32 @fclose(ptr noundef %14)
  br label %16

16:                                               ; preds = %13, %9, %5, %1
  ret void
}

; Function Attrs: nounwind uwtable
define internal void @output_reset(ptr noundef %0) #0 {
  %2 = alloca ptr, align 8
  %3 = alloca ptr, align 8
  %4 = alloca ptr, align 8
  store ptr %0, ptr %2, align 8, !tbaa !373
  %5 = load ptr, ptr %2, align 8, !tbaa !373
  %6 = getelementptr inbounds nuw %struct.ShellState, ptr %5, i32 0, i32 50
  %7 = getelementptr inbounds [4096 x i8], ptr %6, i64 0, i64 0
  %8 = load i8, ptr %7, align 8, !tbaa !40
  %9 = sext i8 %8 to i32
  %10 = icmp eq i32 %9, 124
  br i1 %10, label %11, label %16

11:                                               ; preds = %1
  %12 = load ptr, ptr %2, align 8, !tbaa !373
  %13 = getelementptr inbounds nuw %struct.ShellState, ptr %12, i32 0, i32 23
  %14 = load ptr, ptr %13, align 8, !tbaa !354
  %15 = call i32 @pclose(ptr noundef %14)
  br label %55

16:                                               ; preds = %1
  %17 = load ptr, ptr %2, align 8, !tbaa !373
  %18 = getelementptr inbounds nuw %struct.ShellState, ptr %17, i32 0, i32 26
  %19 = load i32, ptr %18, align 4, !tbaa !355
  %20 = icmp eq i32 %19, 20
  br i1 %20, label %21, label %26

21:                                               ; preds = %16
  %22 = load ptr, ptr %2, align 8, !tbaa !373
  %23 = getelementptr inbounds nuw %struct.ShellState, ptr %22, i32 0, i32 23
  %24 = load ptr, ptr %23, align 8, !tbaa !354
  %25 = call i32 @fputs(ptr noundef @.str.1894, ptr noundef %24)
  br label %26

26:                                               ; preds = %21, %16
  %27 = load ptr, ptr %2, align 8, !tbaa !373
  %28 = getelementptr inbounds nuw %struct.ShellState, ptr %27, i32 0, i32 23
  %29 = load ptr, ptr %28, align 8, !tbaa !354
  call void @output_file_close(ptr noundef %29)
  %30 = load ptr, ptr %2, align 8, !tbaa !373
  %31 = getelementptr inbounds nuw %struct.ShellState, ptr %30, i32 0, i32 7
  %32 = load i8, ptr %31, align 2, !tbaa !371
  %33 = icmp ne i8 %32, 0
  br i1 %33, label %34, label %54

34:                                               ; preds = %26
  call void @llvm.lifetime.start.p0(i64 8, ptr %3) #14
  store ptr @.str.1895, ptr %3, align 8, !tbaa !36
  call void @llvm.lifetime.start.p0(i64 8, ptr %4) #14
  %35 = load ptr, ptr %3, align 8, !tbaa !36
  %36 = load ptr, ptr %2, align 8, !tbaa !373
  %37 = getelementptr inbounds nuw %struct.ShellState, ptr %36, i32 0, i32 40
  %38 = load ptr, ptr %37, align 8, !tbaa !450
  %39 = call ptr (ptr, ...) @sqlite3_mprintf(ptr noundef @.str.1896, ptr noundef %35, ptr noundef %38)
  store ptr %39, ptr %4, align 8, !tbaa !36
  %40 = load ptr, ptr %4, align 8, !tbaa !36
  %41 = call i32 @system(ptr noundef %40)
  %42 = icmp ne i32 %41, 0
  br i1 %42, label %43, label %47

43:                                               ; preds = %34
  %44 = load ptr, ptr @stderr, align 8, !tbaa !12
  %45 = load ptr, ptr %4, align 8, !tbaa !36
  %46 = call i32 (ptr, ptr, ...) @fprintf(ptr noundef %44, ptr noundef @.str.1897, ptr noundef %45) #14
  br label %49

47:                                               ; preds = %34
  %48 = call i32 @sqlite3_sleep(i32 noundef 2000)
  br label %49

49:                                               ; preds = %47, %43
  %50 = load ptr, ptr %4, align 8, !tbaa !36
  call void @sqlite3_free(ptr noundef %50)
  %51 = load ptr, ptr %2, align 8, !tbaa !373
  call void @outputModePop(ptr noundef %51)
  %52 = load ptr, ptr %2, align 8, !tbaa !373
  %53 = getelementptr inbounds nuw %struct.ShellState, ptr %52, i32 0, i32 7
  store i8 0, ptr %53, align 2, !tbaa !371
  call void @llvm.lifetime.end.p0(i64 8, ptr %4) #14
  call void @llvm.lifetime.end.p0(i64 8, ptr %3) #14
  br label %54

54:                                               ; preds = %49, %26
  br label %55

55:                                               ; preds = %54, %11
  %56 = load ptr, ptr %2, align 8, !tbaa !373
  %57 = getelementptr inbounds nuw %struct.ShellState, ptr %56, i32 0, i32 50
  %58 = getelementptr inbounds [4096 x i8], ptr %57, i64 0, i64 0
  store i8 0, ptr %58, align 8, !tbaa !40
  %59 = load ptr, ptr @stdout, align 8, !tbaa !12
  %60 = load ptr, ptr %2, align 8, !tbaa !373
  %61 = getelementptr inbounds nuw %struct.ShellState, ptr %60, i32 0, i32 23
  store ptr %59, ptr %61, align 8, !tbaa !354
  %62 = load ptr, ptr %2, align 8, !tbaa !373
  call void @setCrlfMode(ptr noundef %62)
  ret void
}