; Function Attrs: nounwind uwtable
define internal fastcc void @output_reset(ptr noundef nonnull captures(none) %0) unnamed_addr #2 {
  %2 = getelementptr inbounds nuw i8, ptr %0, i64 320
  %3 = load i8, ptr %2, align 8, !tbaa !25
  %4 = icmp eq i8 %3, 124
  br i1 %4, label %5, label %9

5:                                                ; preds = %1
  %6 = getelementptr inbounds nuw i8, ptr %0, i64 72
  %7 = load ptr, ptr %6, align 8, !tbaa !462
  %8 = tail call i32 @pclose(ptr noundef %7)
  br label %46

9:                                                ; preds = %1
  %10 = getelementptr inbounds nuw i8, ptr %0, i64 92
  %11 = load i32, ptr %10, align 4, !tbaa !442
  %12 = icmp eq i32 %11, 20
  br i1 %12, label %13, label %17

13:                                               ; preds = %9
  %14 = getelementptr inbounds nuw i8, ptr %0, i64 72
  %15 = load ptr, ptr %14, align 8, !tbaa !462
  %16 = tail call i64 @fwrite(ptr nonnull @.str.1894, i64 21, i64 1, ptr %15)
  br label %17

17:                                               ; preds = %13, %9
  %18 = getelementptr inbounds nuw i8, ptr %0, i64 72
  %19 = load ptr, ptr %18, align 8, !tbaa !462
  %.not.i = icmp eq ptr %19, null
  %20 = load ptr, ptr @stdout, align 8
  %.not4.i = icmp eq ptr %19, %20
  %or.cond.i = select i1 %.not.i, i1 true, i1 %.not4.i
  %21 = load ptr, ptr @stderr, align 8
  %.not5.i = icmp eq ptr %19, %21
  %or.cond6.i = select i1 %or.cond.i, i1 true, i1 %.not5.i
  br i1 %or.cond6.i, label %output_file_close.exit, label %22

22:                                               ; preds = %17
  %23 = tail call i32 @fclose(ptr noundef nonnull %19)
  br label %output_file_close.exit

output_file_close.exit:                           ; preds = %17, %22
  %24 = getelementptr inbounds nuw i8, ptr %0, i64 14
  %25 = load i8, ptr %24, align 2, !tbaa !482
  %.not = icmp eq i8 %25, 0
  br i1 %.not, label %46, label %26

26:                                               ; preds = %output_file_close.exit
  %27 = getelementptr inbounds nuw i8, ptr %0, i64 160
  %28 = load ptr, ptr %27, align 8, !tbaa !483
  %29 = tail call ptr (ptr, ...) @sqlite3_mprintf(ptr noundef nonnull @.str.1896, ptr noundef nonnull @.str.1895, ptr noundef %28) #43
  %30 = tail call i32 @system(ptr noundef %29) #43
  %.not16 = icmp eq i32 %30, 0
  br i1 %.not16, label %34, label %31

31:                                               ; preds = %26
  %32 = load ptr, ptr @stderr, align 8, !tbaa !14
  %33 = tail call i32 (ptr, ptr, ...) @fprintf(ptr noundef %32, ptr noundef nonnull @.str.1897, ptr noundef %29) #46
  br label %36

34:                                               ; preds = %26
  %35 = tail call i32 @sqlite3_sleep(i32 noundef 2000) #43
  br label %36

36:                                               ; preds = %34, %31
  tail call void @sqlite3_free(ptr noundef %29) #43
  %37 = getelementptr inbounds nuw i8, ptr %0, i64 96
  %38 = load i32, ptr %37, align 8, !tbaa !552
  store i32 %38, ptr %10, align 4, !tbaa !442
  %39 = getelementptr inbounds nuw i8, ptr %0, i64 136
  %40 = load i32, ptr %39, align 8, !tbaa !553
  %41 = getelementptr inbounds nuw i8, ptr %0, i64 132
  store i32 %40, ptr %41, align 4, !tbaa !454
  %42 = getelementptr inbounds nuw i8, ptr %0, i64 198
  %43 = getelementptr inbounds nuw i8, ptr %0, i64 238
  tail call void @llvm.memcpy.p0.p0.i64(ptr noundef nonnull align 2 dereferenceable(20) %42, ptr noundef nonnull align 2 dereferenceable(20) %43, i64 20, i1 false)
  %44 = getelementptr inbounds nuw i8, ptr %0, i64 218
  %45 = getelementptr inbounds nuw i8, ptr %0, i64 258
  tail call void @llvm.memcpy.p0.p0.i64(ptr noundef nonnull align 2 dereferenceable(20) %44, ptr noundef nonnull align 2 dereferenceable(20) %45, i64 20, i1 false)
  store i8 0, ptr %24, align 2, !tbaa !482
  br label %46

46:                                               ; preds = %output_file_close.exit, %36, %5
  store i8 0, ptr %2, align 8, !tbaa !25
  %47 = load ptr, ptr @stdout, align 8, !tbaa !14
  %48 = getelementptr inbounds nuw i8, ptr %0, i64 72
  store ptr %47, ptr %48, align 8, !tbaa !462
  ret void
}